target datalayout = "e-m:e-p270:32:32-p271:32:32-p272:64:64-i64:64-i128:128-f80:128-n8:16:32:64-S128"
target triple = "x86_64-pc-linux-gnu"

%struct.ossl_param_st = type { ptr, i32, ptr, i64, i64 }

@mainctx = internal global ptr null, align 8
@.str.28 = private unnamed_addr constant [34 x i8] c"../openssl/test/evp_extra_test2.c\00", align 1
@.str.57 = private unnamed_addr constant [2 x i8] c"1\00", align 1
@.str.114 = private unnamed_addr constant [4 x i8] c"DSA\00", align 1
@.str.119 = private unnamed_addr constant [9 x i8] c"expected\00", align 1
@.str.124 = private unnamed_addr constant [28 x i8] c"EVP_PKEY_fromdata_init(ctx)\00", align 1
@.str.134 = private unnamed_addr constant [6 x i8] c"pbits\00", align 1
@.str.135 = private unnamed_addr constant [7 x i8] c"digest\00", align 1
@.str.136 = private unnamed_addr constant [7 x i8] c"SHA512\00", align 1
@.str.137 = private unnamed_addr constant [11 x i8] c"properties\00", align 1
@.str.138 = private unnamed_addr constant [17 x i8] c"provider=unknown\00", align 1
@.str.139 = private unnamed_addr constant [17 x i8] c"provider=default\00", align 1
@.str.140 = private unnamed_addr constant [55 x i8] c"ctx = EVP_PKEY_CTX_new_from_name(mainctx, \22DSA\22, NULL)\00", align 1
@.str.141 = private unnamed_addr constant [63 x i8] c"EVP_PKEY_fromdata(ctx, &pkey, EVP_PKEY_KEY_PARAMETERS, params)\00", align 1
@.str.142 = private unnamed_addr constant [55 x i8] c"gctx = EVP_PKEY_CTX_new_from_pkey(mainctx, pkey, NULL)\00", align 1
@.str.143 = private unnamed_addr constant [29 x i8] c"EVP_PKEY_paramgen_init(gctx)\00", align 1
@.str.144 = private unnamed_addr constant [32 x i8] c"EVP_PKEY_paramgen(gctx, &pkey2)\00", align 1

; Function Attrs: nounwind uwtable
define internal i32 @test_dsa_fromdata_digest_prop(i32 noundef %0) #0 {
  %2 = alloca i32, align 4
  %3 = alloca ptr, align 8
  %4 = alloca ptr, align 8
  %5 = alloca ptr, align 8
  %6 = alloca ptr, align 8
  %7 = alloca [4 x %struct.ossl_param_st], align 16
  %8 = alloca ptr, align 8
  %9 = alloca i32, align 4
  %10 = alloca i32, align 4
  %11 = alloca i32, align 4
  %12 = alloca %struct.ossl_param_st, align 8
  %13 = alloca %struct.ossl_param_st, align 8
  %14 = alloca %struct.ossl_param_st, align 8
  %15 = alloca %struct.ossl_param_st, align 8
  store i32 %0, ptr %2, align 4, !tbaa !11
  call void @llvm.lifetime.start.p0(i64 8, ptr %3) #7
  store ptr null, ptr %3, align 8, !tbaa !29
  call void @llvm.lifetime.start.p0(i64 8, ptr %4) #7
  store ptr null, ptr %4, align 8, !tbaa !29
  call void @llvm.lifetime.start.p0(i64 8, ptr %5) #7
  store ptr null, ptr %5, align 8, !tbaa !13
  call void @llvm.lifetime.start.p0(i64 8, ptr %6) #7
  store ptr null, ptr %6, align 8, !tbaa !13
  call void @llvm.lifetime.start.p0(i64 160, ptr %7) #7
  call void @llvm.lifetime.start.p0(i64 8, ptr %8) #7
  %16 = getelementptr inbounds [4 x %struct.ossl_param_st], ptr %7, i64 0, i64 0
  store ptr %16, ptr %8, align 8, !tbaa !35
  call void @llvm.lifetime.start.p0(i64 4, ptr %9) #7
  store i32 0, ptr %9, align 4, !tbaa !11
  call void @llvm.lifetime.start.p0(i64 4, ptr %10) #7
  %17 = load i32, ptr %2, align 4, !tbaa !11
  %18 = icmp eq i32 %17, 0
  %19 = select i1 %18, i32 0, i32 1
  store i32 %19, ptr %10, align 4, !tbaa !11
  call void @llvm.lifetime.start.p0(i64 4, ptr %11) #7
  store i32 512, ptr %11, align 4, !tbaa !11
  %20 = load ptr, ptr %8, align 8, !tbaa !35
  %21 = getelementptr inbounds nuw %struct.ossl_param_st, ptr %20, i32 1
  store ptr %21, ptr %8, align 8, !tbaa !35
  call void @llvm.lifetime.start.p0(i64 40, ptr %12) #7
  call void @OSSL_PARAM_construct_uint(ptr dead_on_unwind writable sret(%struct.ossl_param_st) align 8 %12, ptr noundef @.str.134, ptr noundef %11)
  call void @llvm.memcpy.p0.p0.i64(ptr align 8 %20, ptr align 8 %12, i64 40, i1 false), !tbaa.struct !37
  call void @llvm.lifetime.end.p0(i64 40, ptr %12) #7
  %22 = load ptr, ptr %8, align 8, !tbaa !35
  %23 = getelementptr inbounds nuw %struct.ossl_param_st, ptr %22, i32 1
  store ptr %23, ptr %8, align 8, !tbaa !35
  call void @llvm.lifetime.start.p0(i64 40, ptr %13) #7
  call void @OSSL_PARAM_construct_utf8_string(ptr dead_on_unwind writable sret(%struct.ossl_param_st) align 8 %13, ptr noundef @.str.135, ptr noundef @.str.136, i64 noundef 0)
  call void @llvm.memcpy.p0.p0.i64(ptr align 8 %22, ptr align 8 %13, i64 40, i1 false), !tbaa.struct !37
  call void @llvm.lifetime.end.p0(i64 40, ptr %13) #7
  %24 = load ptr, ptr %8, align 8, !tbaa !35
  %25 = getelementptr inbounds nuw %struct.ossl_param_st, ptr %24, i32 1
  store ptr %25, ptr %8, align 8, !tbaa !35
  call void @llvm.lifetime.start.p0(i64 40, ptr %14) #7
  %26 = load i32, ptr %2, align 4, !tbaa !11
  %27 = icmp eq i32 %26, 0
  %28 = select i1 %27, ptr @.str.138, ptr @.str.139
  call void @OSSL_PARAM_construct_utf8_string(ptr dead_on_unwind writable sret(%struct.ossl_param_st) align 8 %14, ptr noundef @.str.137, ptr noundef %28, i64 noundef 0)
  call void @llvm.memcpy.p0.p0.i64(ptr align 8 %24, ptr align 8 %14, i64 40, i1 false), !tbaa.struct !37
  call void @llvm.lifetime.end.p0(i64 40, ptr %14) #7
  %29 = load ptr, ptr %8, align 8, !tbaa !35
  %30 = getelementptr inbounds nuw %struct.ossl_param_st, ptr %29, i32 1
  store ptr %30, ptr %8, align 8, !tbaa !35
  call void @llvm.lifetime.start.p0(i64 40, ptr %15) #7
  call void @OSSL_PARAM_construct_end(ptr dead_on_unwind writable sret(%struct.ossl_param_st) align 8 %15)
  call void @llvm.memcpy.p0.p0.i64(ptr align 8 %29, ptr align 8 %15, i64 40, i1 false), !tbaa.struct !37
  call void @llvm.lifetime.end.p0(i64 40, ptr %15) #7
  %31 = load ptr, ptr @mainctx, align 8, !tbaa !4
  %32 = call ptr @EVP_PKEY_CTX_new_from_name(ptr noundef %31, ptr noundef @.str.114, ptr noundef null)
  store ptr %32, ptr %3, align 8, !tbaa !29
  %33 = call i32 @test_ptr(ptr noundef @.str.28, i32 noundef 1192, ptr noundef @.str.140, ptr noundef %32)
  %34 = icmp ne i32 %33, 0
  br i1 %34, label %35, label %46

35:                                               ; preds = %1
  %36 = load ptr, ptr %3, align 8, !tbaa !29
  %37 = call i32 @EVP_PKEY_fromdata_init(ptr noundef %36)
  %38 = call i32 @test_int_eq(ptr noundef @.str.28, i32 noundef 1193, ptr noundef @.str.124, ptr noundef @.str.57, i32 noundef %37, i32 noundef 1)
  %39 = icmp ne i32 %38, 0
  br i1 %39, label %40, label %46

40:                                               ; preds = %35
  %41 = load ptr, ptr %3, align 8, !tbaa !29
  %42 = getelementptr inbounds [4 x %struct.ossl_param_st], ptr %7, i64 0, i64 0
  %43 = call i32 @EVP_PKEY_fromdata(ptr noundef %41, ptr noundef %5, i32 noundef 132, ptr noundef %42)
  %44 = call i32 @test_int_eq(ptr noundef @.str.28, i32 noundef 1194, ptr noundef @.str.141, ptr noundef @.str.57, i32 noundef %43, i32 noundef 1)
  %45 = icmp ne i32 %44, 0
  br i1 %45, label %47, label %46

46:                                               ; preds = %40, %35, %1
  br label %66

47:                                               ; preds = %40
  %48 = load ptr, ptr @mainctx, align 8, !tbaa !4
  %49 = load ptr, ptr %5, align 8, !tbaa !13
  %50 = call ptr @EVP_PKEY_CTX_new_from_pkey(ptr noundef %48, ptr noundef %49, ptr noundef null)
  store ptr %50, ptr %4, align 8, !tbaa !29
  %51 = call i32 @test_ptr(ptr noundef @.str.28, i32 noundef 1197, ptr noundef @.str.142, ptr noundef %50)
  %52 = icmp ne i32 %51, 0
  br i1 %52, label %53, label %64

53:                                               ; preds = %47
  %54 = load ptr, ptr %4, align 8, !tbaa !29
  %55 = call i32 @EVP_PKEY_paramgen_init(ptr noundef %54)
  %56 = call i32 @test_int_eq(ptr noundef @.str.28, i32 noundef 1198, ptr noundef @.str.143, ptr noundef @.str.57, i32 noundef %55, i32 noundef 1)
  %57 = icmp ne i32 %56, 0
  br i1 %57, label %58, label %64

58:                                               ; preds = %53
  %59 = load ptr, ptr %4, align 8, !tbaa !29
  %60 = call i32 @EVP_PKEY_paramgen(ptr noundef %59, ptr noundef %6)
  %61 = load i32, ptr %10, align 4, !tbaa !11
  %62 = call i32 @test_int_eq(ptr noundef @.str.28, i32 noundef 1199, ptr noundef @.str.144, ptr noundef @.str.119, i32 noundef %60, i32 noundef %61)
  %63 = icmp ne i32 %62, 0
  br i1 %63, label %65, label %64

64:                                               ; preds = %58, %53, %47
  br label %66

65:                                               ; preds = %58
  store i32 1, ptr %9, align 4, !tbaa !11
  br label %66

66:                                               ; preds = %65, %64, %46
  %67 = load ptr, ptr %6, align 8, !tbaa !13
  call void @EVP_PKEY_free(ptr noundef %67)
  %68 = load ptr, ptr %5, align 8, !tbaa !13
  call void @EVP_PKEY_free(ptr noundef %68)
  %69 = load ptr, ptr %3, align 8, !tbaa !29
  call void @EVP_PKEY_CTX_free(ptr noundef %69)
  %70 = load ptr, ptr %4, align 8, !tbaa !29
  call void @EVP_PKEY_CTX_free(ptr noundef %70)
  %71 = load i32, ptr %9, align 4, !tbaa !11
  call void @llvm.lifetime.end.p0(i64 4, ptr %11) #7
  call void @llvm.lifetime.end.p0(i64 4, ptr %10) #7
  call void @llvm.lifetime.end.p0(i64 4, ptr %9) #7
  call void @llvm.lifetime.end.p0(i64 8, ptr %8) #7
  call void @llvm.lifetime.end.p0(i64 160, ptr %7) #7
  call void @llvm.lifetime.end.p0(i64 8, ptr %6) #7
  call void @llvm.lifetime.end.p0(i64 8, ptr %5) #7
  call void @llvm.lifetime.end.p0(i64 8, ptr %4) #7
  call void @llvm.lifetime.end.p0(i64 8, ptr %3) #7
  ret i32 %71
}