; Function Attrs: nounwind uwtable
define internal range(i32 0, 2) i32 @test_dsa_fromdata_digest_prop(i32 noundef %0) #0 {
  %2 = alloca ptr, align 8
  %3 = alloca ptr, align 8
  %4 = alloca [4 x %struct.ossl_param_st], align 16
  %5 = alloca i32, align 4
  %6 = alloca %struct.ossl_param_st, align 8
  %7 = alloca %struct.ossl_param_st, align 8
  %8 = alloca %struct.ossl_param_st, align 8
  call void @llvm.lifetime.start.p0(i64 8, ptr nonnull %2) #7
  store ptr null, ptr %2, align 8, !tbaa !26
  call void @llvm.lifetime.start.p0(i64 8, ptr nonnull %3) #7
  store ptr null, ptr %3, align 8, !tbaa !26
  call void @llvm.lifetime.start.p0(i64 160, ptr nonnull %4) #7
  %9 = icmp ne i32 %0, 0
  %10 = zext i1 %9 to i32
  call void @llvm.lifetime.start.p0(i64 4, ptr nonnull %5) #7
  store i32 512, ptr %5, align 4, !tbaa !22
  %11 = getelementptr inbounds nuw i8, ptr %4, i64 40
  call void @OSSL_PARAM_construct_uint(ptr dead_on_unwind nonnull writable sret(%struct.ossl_param_st) align 8 %4, ptr noundef nonnull @.str.134, ptr noundef nonnull %5) #7
  %12 = getelementptr inbounds nuw i8, ptr %4, i64 80
  call void @llvm.lifetime.start.p0(i64 40, ptr nonnull %6) #7
  call void @OSSL_PARAM_construct_utf8_string(ptr dead_on_unwind nonnull writable sret(%struct.ossl_param_st) align 8 %6, ptr noundef nonnull @.str.135, ptr noundef nonnull @.str.136, i64 noundef 0) #7
  call void @llvm.memcpy.p0.p0.i64(ptr noundef nonnull align 8 dereferenceable(40) %11, ptr noundef nonnull align 8 dereferenceable(40) %6, i64 40, i1 false), !tbaa.struct !23
  call void @llvm.lifetime.end.p0(i64 40, ptr nonnull %6) #7
  %13 = getelementptr inbounds nuw i8, ptr %4, i64 120
  call void @llvm.lifetime.start.p0(i64 40, ptr nonnull %7) #7
  %14 = select i1 %9, ptr @.str.139, ptr @.str.138
  call void @OSSL_PARAM_construct_utf8_string(ptr dead_on_unwind nonnull writable sret(%struct.ossl_param_st) align 8 %7, ptr noundef nonnull @.str.137, ptr noundef nonnull %14, i64 noundef 0) #7
  call void @llvm.memcpy.p0.p0.i64(ptr noundef nonnull align 16 dereferenceable(40) %12, ptr noundef nonnull align 8 dereferenceable(40) %7, i64 40, i1 false), !tbaa.struct !23
  call void @llvm.lifetime.end.p0(i64 40, ptr nonnull %7) #7
  call void @llvm.lifetime.start.p0(i64 40, ptr nonnull %8) #7
  call void @OSSL_PARAM_construct_end(ptr dead_on_unwind nonnull writable sret(%struct.ossl_param_st) align 8 %8) #7
  call void @llvm.memcpy.p0.p0.i64(ptr noundef nonnull align 8 dereferenceable(40) %13, ptr noundef nonnull align 8 dereferenceable(40) %8, i64 40, i1 false), !tbaa.struct !23
  call void @llvm.lifetime.end.p0(i64 40, ptr nonnull %8) #7
  %15 = load ptr, ptr @mainctx, align 8, !tbaa !4
  %16 = call ptr @EVP_PKEY_CTX_new_from_name(ptr noundef %15, ptr noundef nonnull @.str.114, ptr noundef null) #7
  %17 = call i32 @test_ptr(ptr noundef nonnull @.str.28, i32 noundef 1192, ptr noundef nonnull @.str.140, ptr noundef %16) #7
  %.not = icmp eq i32 %17, 0
  br i1 %.not, label %35, label %18

18:                                               ; preds = %1
  %19 = call i32 @EVP_PKEY_fromdata_init(ptr noundef %16) #7
  %20 = call i32 @test_int_eq(ptr noundef nonnull @.str.28, i32 noundef 1193, ptr noundef nonnull @.str.124, ptr noundef nonnull @.str.57, i32 noundef %19, i32 noundef 1) #7
  %.not14 = icmp eq i32 %20, 0
  br i1 %.not14, label %35, label %21

21:                                               ; preds = %18
  %22 = call i32 @EVP_PKEY_fromdata(ptr noundef %16, ptr noundef nonnull %2, i32 noundef 132, ptr noundef nonnull %4) #7
  %23 = call i32 @test_int_eq(ptr noundef nonnull @.str.28, i32 noundef 1194, ptr noundef nonnull @.str.141, ptr noundef nonnull @.str.57, i32 noundef %22, i32 noundef 1) #7
  %.not15 = icmp eq i32 %23, 0
  br i1 %.not15, label %35, label %24

24:                                               ; preds = %21
  %25 = load ptr, ptr @mainctx, align 8, !tbaa !4
  %26 = load ptr, ptr %2, align 8, !tbaa !26
  %27 = call ptr @EVP_PKEY_CTX_new_from_pkey(ptr noundef %25, ptr noundef %26, ptr noundef null) #7
  %28 = call i32 @test_ptr(ptr noundef nonnull @.str.28, i32 noundef 1197, ptr noundef nonnull @.str.142, ptr noundef %27) #7
  %.not16 = icmp eq i32 %28, 0
  br i1 %.not16, label %35, label %29

29:                                               ; preds = %24
  %30 = call i32 @EVP_PKEY_paramgen_init(ptr noundef %27) #7
  %31 = call i32 @test_int_eq(ptr noundef nonnull @.str.28, i32 noundef 1198, ptr noundef nonnull @.str.143, ptr noundef nonnull @.str.57, i32 noundef %30, i32 noundef 1) #7
  %.not17 = icmp eq i32 %31, 0
  br i1 %.not17, label %35, label %32

32:                                               ; preds = %29
  %33 = call i32 @EVP_PKEY_paramgen(ptr noundef %27, ptr noundef nonnull %3) #7
  %34 = call i32 @test_int_eq(ptr noundef nonnull @.str.28, i32 noundef 1199, ptr noundef nonnull @.str.144, ptr noundef nonnull @.str.119, i32 noundef %33, i32 noundef %10) #7
  %.not18 = icmp ne i32 %34, 0
  %spec.select = zext i1 %.not18 to i32
  %.pre = load ptr, ptr %3, align 8, !tbaa !26
  br label %35

35:                                               ; preds = %32, %24, %29, %1, %18, %21
  %36 = phi ptr [ null, %29 ], [ null, %24 ], [ null, %21 ], [ null, %18 ], [ null, %1 ], [ %.pre, %32 ]
  %.013 = phi ptr [ %27, %29 ], [ %27, %24 ], [ null, %21 ], [ null, %18 ], [ null, %1 ], [ %27, %32 ]
  %.0 = phi i32 [ 0, %29 ], [ 0, %24 ], [ 0, %21 ], [ 0, %18 ], [ 0, %1 ], [ %spec.select, %32 ]
  call void @EVP_PKEY_free(ptr noundef %36) #7
  %37 = load ptr, ptr %2, align 8, !tbaa !26
  call void @EVP_PKEY_free(ptr noundef %37) #7
  call void @EVP_PKEY_CTX_free(ptr noundef %16) #7
  call void @EVP_PKEY_CTX_free(ptr noundef %.013) #7
  call void @llvm.lifetime.end.p0(i64 4, ptr nonnull %5) #7
  call void @llvm.lifetime.end.p0(i64 160, ptr nonnull %4) #7
  call void @llvm.lifetime.end.p0(i64 8, ptr nonnull %3) #7
  call void @llvm.lifetime.end.p0(i64 8, ptr nonnull %2) #7
  ret i32 %.0
}